; Function Attrs: nounwind uwtable
define internal fastcc zeroext i1 @is_typename(ptr nocapture noundef readonly %tok) unnamed_addr #0 {
entry:
  %0 = load i32, ptr getelementptr inbounds (%struct.HashMap, ptr @is_typename.map, i64 0, i32 1), align 8
  %cmp = icmp eq i32 %0, 0
  br i1 %cmp, label %for.body, label %if.end

for.body:                                         ; preds = %entry, %for.body
  %indvars.iv = phi i64 [ %indvars.iv.next, %for.body ], [ 0, %entry ]
  %arrayidx = getelementptr inbounds [30 x ptr], ptr @is_typename.kw, i64 0, i64 %indvars.iv
  %1 = load ptr, ptr %arrayidx, align 8
  tail call void @hashmap_put(ptr noundef nonnull @is_typename.map, ptr noundef %1, ptr noundef nonnull inttoptr (i64 1 to ptr)) #13
  %indvars.iv.next = add nuw nsw i64 %indvars.iv, 1
  %exitcond.not = icmp eq i64 %indvars.iv.next, 30
  br i1 %exitcond.not, label %if.end, label %for.body, !llvm.loop !13

if.end:                                           ; preds = %for.body, %entry
  %loc = getelementptr inbounds %struct.Token, ptr %tok, i64 0, i32 4
  %2 = load ptr, ptr %loc, align 16
  %len = getelementptr inbounds %struct.Token, ptr %tok, i64 0, i32 5
  %3 = load i32, ptr %len, align 8
  %call = tail call ptr @hashmap_get2(ptr noundef nonnull @is_typename.map, ptr noundef %2, i32 noundef %3) #13
  %tobool.not = icmp eq ptr %call, null
  br i1 %tobool.not, label %lor.rhs, label %lor.end

lor.rhs:                                          ; preds = %if.end
  %4 = load i32, ptr %tok, align 16
  %cmp.i = icmp eq i32 %4, 0
  br i1 %cmp.i, label %for.cond.i.i, label %lor.end

for.cond.i.i:                                     ; preds = %lor.rhs, %for.body.i.i
  %sc.0.in.i.i = phi ptr [ %sc.0.i.i, %for.body.i.i ], [ @scope, %lor.rhs ]
  %sc.0.i.i = load ptr, ptr %sc.0.in.i.i, align 8
  %tobool.not.i.i = icmp eq ptr %sc.0.i.i, null
  br i1 %tobool.not.i.i, label %lor.end, label %for.body.i.i

for.body.i.i:                                     ; preds = %for.cond.i.i
  %vars.i.i = getelementptr inbounds %struct.Scope, ptr %sc.0.i.i, i64 0, i32 1
  %5 = load ptr, ptr %loc, align 16
  %6 = load i32, ptr %len, align 8
  %call.i.i = tail call ptr @hashmap_get2(ptr noundef nonnull %vars.i.i, ptr noundef %5, i32 noundef %6) #13
  %tobool1.not.i.i = icmp eq ptr %call.i.i, null
  br i1 %tobool1.not.i.i, label %for.cond.i.i, label %if.then1.i, !llvm.loop !14

if.then1.i:                                       ; preds = %for.body.i.i
  %type_def.i = getelementptr inbounds %struct.VarScope, ptr %call.i.i, i64 0, i32 1
  %7 = load ptr, ptr %type_def.i, align 8
  %8 = icmp ne ptr %7, null
  br label %lor.end

lor.end:                                          ; preds = %for.cond.i.i, %if.then1.i, %lor.rhs, %if.end
  %9 = phi i1 [ true, %if.end ], [ %8, %if.then1.i ], [ false, %lor.rhs ], [ false, %for.cond.i.i ]
  ret i1 %9
}